; Function Attrs: mustprogress ssp uwtable
define internal void @"_ZNSt17_Function_handlerIFvRKNSt7__cxx1112basic_stringIcSt11char_traitsIcESaIcEEEEZN6open3dL20pybind11_init_pybindERN8pybind117module_EE3$_0E9_M_invokeERKSt9_Any_dataS7_"(ptr nonnull readnone align 8 captures(none) %0, ptr noundef nonnull align 8 dereferenceable(32) %1) #5 align 2 personality ptr @__gxx_personality_v0 {
  %3 = alloca %"class.pybind11::gil_scoped_acquire", align 8
  call void @llvm.lifetime.start.p0(i64 16, ptr nonnull %3) #29
  call void @_ZN8pybind1118gil_scoped_acquireC2Ev(ptr noundef nonnull align 8 dereferenceable(10) %3)
  invoke void @_ZN8pybind115printILNS_19return_value_policyE1EJRKNSt7__cxx1112basic_stringIcSt11char_traitsIcESaIcEEEEEEvDpOT0_(ptr noundef nonnull align 8 dereferenceable(32) %1)
          to label %"_ZSt10__invoke_rIvRZN6open3dL20pybind11_init_pybindERN8pybind117module_EE3$_0JRKNSt7__cxx1112basic_stringIcSt11char_traitsIcESaIcEEEEENSt9enable_ifIX16is_invocable_r_vIT_T0_DpT1_EESF_E4typeEOSG_DpOSH_.exit" unwind label %4

4:                                                ; preds = %2
  %5 = landingpad { ptr, i32 }
          cleanup
  call void @_ZN8pybind1118gil_scoped_acquireD2Ev(ptr noundef nonnull align 8 dereferenceable(10) %3) #29
  call void @llvm.lifetime.end.p0(i64 16, ptr nonnull %3) #29
  resume { ptr, i32 } %5

"_ZSt10__invoke_rIvRZN6open3dL20pybind11_init_pybindERN8pybind117module_EE3$_0JRKNSt7__cxx1112basic_stringIcSt11char_traitsIcESaIcEEEEENSt9enable_ifIX16is_invocable_r_vIT_T0_DpT1_EESF_E4typeEOSG_DpOSH_.exit": ; preds = %2
  call void @_ZN8pybind1118gil_scoped_acquireD2Ev(ptr noundef nonnull align 8 dereferenceable(10) %3) #29
  call void @llvm.lifetime.end.p0(i64 16, ptr nonnull %3) #29
  ret void
}